; Function Attrs: mustprogress nounwind uwtable
define hidden void @_ZN4llvm13X86AsmPrinter19EmitKCFITypePaddingERKNS_15MachineFunctionEb(ptr noundef nonnull align 8 dereferenceable(896) %0, ptr nocapture noundef nonnull readonly align 8 dereferenceable(1041) %1, i1 noundef zeroext %2) local_unnamed_addr #0 align 2 {
_ZNK4llvm9StringRef12getAsIntegerIlEEbjRT_.exit:
  %3 = alloca i64, align 8
  %4 = alloca %"class.llvm::Attribute", align 8
  %5 = load ptr, ptr %1, align 8
  %6 = tail call ptr @_ZNK4llvm8Function14getFnAttributeENS_9StringRefE(ptr noundef nonnull align 8 dereferenceable(136) %5, ptr nonnull @.str.1, i64 25) #16
  store ptr %6, ptr %4, align 8
  %7 = call { ptr, i64 } @_ZNK4llvm9Attribute16getValueAsStringEv(ptr noundef nonnull align 8 dereferenceable(8) %4) #16
  %8 = extractvalue { ptr, i64 } %7, 0
  %9 = extractvalue { ptr, i64 } %7, 1
  call void @llvm.lifetime.start.p0(i64 8, ptr nonnull %3)
  %10 = call noundef zeroext i1 @_ZN4llvm18getAsSignedIntegerENS_9StringRefEjRx(ptr %8, i64 %9, i32 noundef 10, ptr noundef nonnull align 8 dereferenceable(8) %3) #16
  %11 = load i64, ptr %3, align 8
  %spec.select = select i1 %10, i64 0, i64 %11
  call void @llvm.lifetime.end.p0(i64 8, ptr nonnull %3)
  %12 = add nsw i64 %spec.select, 5
  %.0 = select i1 %2, i64 %12, i64 %spec.select
  %13 = getelementptr inbounds nuw i8, ptr %1, i64 340
  %.sroa.0.0.copyload.i3 = load i8, ptr %13, align 4
  %14 = zext nneg i8 %.sroa.0.0.copyload.i3 to i64
  %15 = shl nuw i64 1, %14
  %16 = add i64 %.0, 4294967295
  %17 = add i64 %16, %15
  %18 = sub i64 0, %15
  %19 = and i64 %17, %18
  %20 = sub i64 %19, %.0
  %21 = trunc i64 %20 to i32
  call void @_ZN4llvm10AsmPrinter8emitNopsEj(ptr noundef nonnull align 8 dereferenceable(785) %0, i32 noundef %21) #16
  ret void
}